; ModuleID = '9/598.c'
source_filename = "9/598.c"
target datalayout = "e-m:e-p270:32:32-p271:32:32-p272:64:64-i64:64-f80:128-n8:16:32:64-S128"
target triple = "x86_64-pc-linux-gnu"

@.str = private unnamed_addr constant [3 x i8] c"%d\00", align 1
@.str.1 = private unnamed_addr constant [6 x i8] c"%s %d\00", align 1
@.str.2 = private unnamed_addr constant [4 x i8] c"%s\0A\00", align 1

; Function Attrs: noinline nounwind uwtable
define dso_local i32 @main() #0 {
  %1 = alloca i32, align 4
  %2 = alloca i32, align 4
  %3 = alloca i32, align 4
  %4 = alloca i32, align 4
  %5 = alloca i32, align 4
  %6 = alloca i32, align 4
  %7 = alloca i32, align 4
  %8 = alloca i32, align 4
  %9 = alloca i32, align 4
  %10 = alloca i32, align 4
  %11 = alloca [101 x [10 x i8]], align 16
  %12 = alloca [101 x i32], align 16
  %13 = alloca [101 x i32], align 16
  %14 = alloca [101 x i32], align 16
  store i32 0, i32* %1, align 4
  store i32 0, i32* %10, align 4
  %15 = call i32 (i8*, ...) @__isoc99_scanf(i8* getelementptr inbounds ([3 x i8], [3 x i8]* @.str, i64 0, i64 0), i32* %6)
  store i32 0, i32* %9, align 4
  store i32 1, i32* %2, align 4
  br label %16

16:                                               ; preds = %29, %0
  %17 = load i32, i32* %2, align 4
  %18 = load i32, i32* %6, align 4
  %19 = icmp sle i32 %17, %18
  br i1 %19, label %20, label %32

20:                                               ; preds = %16
  %21 = load i32, i32* %2, align 4
  %22 = sext i32 %21 to i64
  %23 = getelementptr inbounds [101 x [10 x i8]], [101 x [10 x i8]]* %11, i64 0, i64 %22
  %24 = getelementptr inbounds [10 x i8], [10 x i8]* %23, i64 0, i64 0
  %25 = load i32, i32* %2, align 4
  %26 = sext i32 %25 to i64
  %27 = getelementptr inbounds [101 x i32], [101 x i32]* %12, i64 0, i64 %26
  %28 = call i32 (i8*, ...) @__isoc99_scanf(i8* getelementptr inbounds ([6 x i8], [6 x i8]* @.str.1, i64 0, i64 0), i8* %24, i32* %27)
  br label %29

29:                                               ; preds = %20
  %30 = load i32, i32* %2, align 4
  %31 = add nsw i32 %30, 1
  store i32 %31, i32* %2, align 4
  br label %16

32:                                               ; preds = %16
  store i32 1, i32* %2, align 4
  br label %33

33:                                               ; preds = %53, %32
  %34 = load i32, i32* %2, align 4
  %35 = load i32, i32* %6, align 4
  %36 = icmp sle i32 %34, %35
  br i1 %36, label %37, label %56

37:                                               ; preds = %33
  %38 = load i32, i32* %2, align 4
  %39 = sext i32 %38 to i64
  %40 = getelementptr inbounds [101 x i32], [101 x i32]* %13, i64 0, i64 %39
  store i32 0, i32* %40, align 4
  %41 = load i32, i32* %2, align 4
  %42 = sext i32 %41 to i64
  %43 = getelementptr inbounds [101 x i32], [101 x i32]* %12, i64 0, i64 %42
  %44 = load i32, i32* %43, align 4
  %45 = icmp sge i32 %44, 60
  br i1 %45, label %46, label %52

46:                                               ; preds = %37
  %47 = load i32, i32* %2, align 4
  %48 = sext i32 %47 to i64
  %49 = getelementptr inbounds [101 x i32], [101 x i32]* %13, i64 0, i64 %48
  store i32 1, i32* %49, align 4
  %50 = load i32, i32* %9, align 4
  %51 = add nsw i32 %50, 1
  store i32 %51, i32* %9, align 4
  br label %52

52:                                               ; preds = %46, %37
  br label %53

53:                                               ; preds = %52
  %54 = load i32, i32* %2, align 4
  %55 = add nsw i32 %54, 1
  store i32 %55, i32* %2, align 4
  br label %33

56:                                               ; preds = %33
  store i32 1, i32* %2, align 4
  br label %57

57:                                               ; preds = %98, %56
  %58 = load i32, i32* %2, align 4
  %59 = load i32, i32* %9, align 4
  %60 = icmp sle i32 %58, %59
  br i1 %60, label %61, label %101

61:                                               ; preds = %57
  store i32 0, i32* %8, align 4
  store i32 1, i32* %4, align 4
  br label %62

62:                                               ; preds = %87, %61
  %63 = load i32, i32* %4, align 4
  %64 = load i32, i32* %6, align 4
  %65 = icmp sle i32 %63, %64
  br i1 %65, label %66, label %90

66:                                               ; preds = %62
  %67 = load i32, i32* %4, align 4
  %68 = sext i32 %67 to i64
  %69 = getelementptr inbounds [101 x i32], [101 x i32]* %13, i64 0, i64 %68
  %70 = load i32, i32* %69, align 4
  %71 = icmp eq i32 %70, 1
  br i1 %71, label %72, label %86

72:                                               ; preds = %66
  %73 = load i32, i32* %4, align 4
  %74 = sext i32 %73 to i64
  %75 = getelementptr inbounds [101 x i32], [101 x i32]* %12, i64 0, i64 %74
  %76 = load i32, i32* %75, align 4
  %77 = load i32, i32* %8, align 4
  %78 = icmp sgt i32 %76, %77
  br i1 %78, label %79, label %85

79:                                               ; preds = %72
  %80 = load i32, i32* %4, align 4
  %81 = sext i32 %80 to i64
  %82 = getelementptr inbounds [101 x i32], [101 x i32]* %12, i64 0, i64 %81
  %83 = load i32, i32* %82, align 4
  store i32 %83, i32* %8, align 4
  %84 = load i32, i32* %4, align 4
  store i32 %84, i32* %7, align 4
  br label %85

85:                                               ; preds = %79, %72
  br label %86

86:                                               ; preds = %85, %66
  br label %87

87:                                               ; preds = %86
  %88 = load i32, i32* %4, align 4
  %89 = add nsw i32 %88, 1
  store i32 %89, i32* %4, align 4
  br label %62

90:                                               ; preds = %62
  %91 = load i32, i32* %7, align 4
  %92 = load i32, i32* %2, align 4
  %93 = sext i32 %92 to i64
  %94 = getelementptr inbounds [101 x i32], [101 x i32]* %14, i64 0, i64 %93
  store i32 %91, i32* %94, align 4
  %95 = load i32, i32* %7, align 4
  %96 = sext i32 %95 to i64
  %97 = getelementptr inbounds [101 x i32], [101 x i32]* %13, i64 0, i64 %96
  store i32 2, i32* %97, align 4
  br label %98

98:                                               ; preds = %90
  %99 = load i32, i32* %2, align 4
  %100 = add nsw i32 %99, 1
  store i32 %100, i32* %2, align 4
  br label %57

101:                                              ; preds = %57
  store i32 1, i32* %5, align 4
  br label %102

102:                                              ; preds = %116, %101
  %103 = load i32, i32* %5, align 4
  %104 = load i32, i32* %9, align 4
  %105 = icmp sle i32 %103, %104
  br i1 %105, label %106, label %119

106:                                              ; preds = %102
  %107 = load i32, i32* %5, align 4
  %108 = sext i32 %107 to i64
  %109 = getelementptr inbounds [101 x i32], [101 x i32]* %14, i64 0, i64 %108
  %110 = load i32, i32* %109, align 4
  store i32 %110, i32* %10, align 4
  %111 = load i32, i32* %10, align 4
  %112 = sext i32 %111 to i64
  %113 = getelementptr inbounds [101 x [10 x i8]], [101 x [10 x i8]]* %11, i64 0, i64 %112
  %114 = getelementptr inbounds [10 x i8], [10 x i8]* %113, i64 0, i64 0
  %115 = call i32 (i8*, ...) @printf(i8* getelementptr inbounds ([4 x i8], [4 x i8]* @.str.2, i64 0, i64 0), i8* %114)
  br label %116

116:                                              ; preds = %106
  %117 = load i32, i32* %5, align 4
  %118 = add nsw i32 %117, 1
  store i32 %118, i32* %5, align 4
  br label %102

119:                                              ; preds = %102
  store i32 1, i32* %5, align 4
  br label %120

120:                                              ; preds = %137, %119
  %121 = load i32, i32* %5, align 4
  %122 = load i32, i32* %6, align 4
  %123 = icmp sle i32 %121, %122
  br i1 %123, label %124, label %140

124:                                              ; preds = %120
  %125 = load i32, i32* %5, align 4
  %126 = sext i32 %125 to i64
  %127 = getelementptr inbounds [101 x i32], [101 x i32]* %13, i64 0, i64 %126
  %128 = load i32, i32* %127, align 4
  %129 = icmp eq i32 %128, 0
  br i1 %129, label %130, label %136

130:                                              ; preds = %124
  %131 = load i32, i32* %5, align 4
  %132 = sext i32 %131 to i64
  %133 = getelementptr inbounds [101 x [10 x i8]], [101 x [10 x i8]]* %11, i64 0, i64 %132
  %134 = getelementptr inbounds [10 x i8], [10 x i8]* %133, i64 0, i64 0
  %135 = call i32 (i8*, ...) @printf(i8* getelementptr inbounds ([4 x i8], [4 x i8]* @.str.2, i64 0, i64 0), i8* %134)
  br label %136

136:                                              ; preds = %130, %124
  br label %137

137:                                              ; preds = %136
  %138 = load i32, i32* %5, align 4
  %139 = add nsw i32 %138, 1
  store i32 %139, i32* %5, align 4
  br label %120

140:                                              ; preds = %120
  %141 = call i32 @getchar()
  %142 = call i32 @getchar()
  %143 = call i32 @getchar()
  %144 = call i32 @getchar()
  %145 = load i32, i32* %1, align 4
  ret i32 %145
}

declare dso_local i32 @__isoc99_scanf(i8*, ...) #1

declare dso_local i32 @printf(i8*, ...) #1

declare dso_local i32 @getchar() #1


!llvm.module.flags = !{!0}
!llvm.ident = !{!1}

!0 = !{i32 1, !"wchar_size", i32 4}
!1 = !{!"clang version 10.0.0-4ubuntu1 "}
